; Function Attrs: mustprogress nofree norecurse nosync nounwind willreturn memory(argmem: write) uwtable
define internal noundef zeroext i1 @_ZNSt17_Function_handlerIFPN7rocksdb18MemTableRepFactoryERKNSt7__cxx1112basic_stringIcSt11char_traitsIcESaIcEEEPSt10unique_ptrIS1_St14default_deleteIS1_EEPS8_EZNS0_4test12_GLOBAL__N_122SpecialSkipListFactory8RegisterERNS0_13ObjectLibraryESA_EUlSA_SF_SG_E_E10_M_managerERSt9_Any_dataRKSP_St18_Manager_operation(ptr noundef nonnull writeonly align 8 captures(none) dereferenceable(16) %0, ptr noundef nonnull align 8 dereferenceable(16) %1, i32 noundef %2) #26 align 2 personality ptr @__gxx_personality_v0 {
  switch i32 %2, label %_ZNSt14_Function_base13_Base_managerIZN7rocksdb4test12_GLOBAL__N_122SpecialSkipListFactory8RegisterERNS1_13ObjectLibraryERKNSt7__cxx1112basic_stringIcSt11char_traitsIcESaIcEEEEUlSE_PSt10unique_ptrINS1_18MemTableRepFactoryESt14default_deleteISG_EEPSC_E_E10_M_managerERSt9_Any_dataRKSO_St18_Manager_operation.exit [
    i32 1, label %_ZNSt14_Function_base13_Base_managerIZN7rocksdb4test12_GLOBAL__N_122SpecialSkipListFactory8RegisterERNS1_13ObjectLibraryERKNSt7__cxx1112basic_stringIcSt11char_traitsIcESaIcEEEEUlSE_PSt10unique_ptrINS1_18MemTableRepFactoryESt14default_deleteISG_EEPSC_E_E10_M_managerERSt9_Any_dataRKSO_St18_Manager_operation.exit.sink.split
    i32 0, label %4
  ]

4:                                                ; preds = %3
  br label %_ZNSt14_Function_base13_Base_managerIZN7rocksdb4test12_GLOBAL__N_122SpecialSkipListFactory8RegisterERNS1_13ObjectLibraryERKNSt7__cxx1112basic_stringIcSt11char_traitsIcESaIcEEEEUlSE_PSt10unique_ptrINS1_18MemTableRepFactoryESt14default_deleteISG_EEPSC_E_E10_M_managerERSt9_Any_dataRKSO_St18_Manager_operation.exit.sink.split

_ZNSt14_Function_base13_Base_managerIZN7rocksdb4test12_GLOBAL__N_122SpecialSkipListFactory8RegisterERNS1_13ObjectLibraryERKNSt7__cxx1112basic_stringIcSt11char_traitsIcESaIcEEEEUlSE_PSt10unique_ptrINS1_18MemTableRepFactoryESt14default_deleteISG_EEPSC_E_E10_M_managerERSt9_Any_dataRKSO_St18_Manager_operation.exit.sink.split: ; preds = %3, %4
  %.sink = phi ptr [ null, %4 ], [ %1, %3 ]
  store ptr %.sink, ptr %0, align 8, !tbaa !493
  br label %_ZNSt14_Function_base13_Base_managerIZN7rocksdb4test12_GLOBAL__N_122SpecialSkipListFactory8RegisterERNS1_13ObjectLibraryERKNSt7__cxx1112basic_stringIcSt11char_traitsIcESaIcEEEEUlSE_PSt10unique_ptrINS1_18MemTableRepFactoryESt14default_deleteISG_EEPSC_E_E10_M_managerERSt9_Any_dataRKSO_St18_Manager_operation.exit

_ZNSt14_Function_base13_Base_managerIZN7rocksdb4test12_GLOBAL__N_122SpecialSkipListFactory8RegisterERNS1_13ObjectLibraryERKNSt7__cxx1112basic_stringIcSt11char_traitsIcESaIcEEEEUlSE_PSt10unique_ptrINS1_18MemTableRepFactoryESt14default_deleteISG_EEPSC_E_E10_M_managerERSt9_Any_dataRKSO_St18_Manager_operation.exit: ; preds = %_ZNSt14_Function_base13_Base_managerIZN7rocksdb4test12_GLOBAL__N_122SpecialSkipListFactory8RegisterERNS1_13ObjectLibraryERKNSt7__cxx1112basic_stringIcSt11char_traitsIcESaIcEEEEUlSE_PSt10unique_ptrINS1_18MemTableRepFactoryESt14default_deleteISG_EEPSC_E_E10_M_managerERSt9_Any_dataRKSO_St18_Manager_operation.exit.sink.split, %3
  ret i1 false
}